; Function Attrs: mustprogress nounwind uwtable
define hidden void @_ZN6cineon5CodecD2Ev(ptr nocapture noundef nonnull align 8 dereferenceable(16) %this) unnamed_addr #5 align 2 {
entry:
  store ptr getelementptr inbounds ({ [6 x ptr] }, ptr @_ZTVN6cineon5CodecE, i64 0, i32 0, i64 2), ptr %this, align 8
  %scanline = getelementptr inbounds i8, ptr %this, i64 8
  %0 = load ptr, ptr %scanline, align 8
  %tobool.not = icmp eq ptr %0, null
  br i1 %tobool.not, label %if.end, label %delete.notnull

delete.notnull:                                   ; preds = %entry
  tail call void @_ZdaPv(ptr noundef nonnull %0) #9
  br label %if.end

if.end:                                           ; preds = %delete.notnull, %entry
  ret void
}